target datalayout = "e-m:e-p270:32:32-p271:32:32-p272:64:64-i64:64-i128:128-f80:128-n8:16:32:64-S128"
target triple = "x86_64-pc-linux-gnu"

; Function Attrs: mustprogress nounwind uwtable
define noundef i64 @_ZN11duckdb_zstd21ZSTD_crossEntropyCostEPKsjPKjj(ptr noundef %0, i32 noundef %1, ptr noundef %2, i32 noundef %3) #3 {
  %5 = alloca ptr, align 8
  %6 = alloca i32, align 4
  %7 = alloca ptr, align 8
  %8 = alloca i32, align 4
  %9 = alloca i32, align 4
  %10 = alloca i64, align 8
  %11 = alloca i32, align 4
  %12 = alloca i32, align 4
  %13 = alloca i32, align 4
  store ptr %0, ptr %5, align 8, !tbaa !18
  store i32 %1, ptr %6, align 4, !tbaa !8
  store ptr %2, ptr %7, align 8, !tbaa !3
  store i32 %3, ptr %8, align 4, !tbaa !8
  call void @llvm.lifetime.start.p0(i64 4, ptr %9) #11
  %14 = load i32, ptr %6, align 4, !tbaa !8
  %15 = sub i32 8, %14
  store i32 %15, ptr %9, align 4, !tbaa !8
  call void @llvm.lifetime.start.p0(i64 8, ptr %10) #11
  store i64 0, ptr %10, align 8, !tbaa !10
  call void @llvm.lifetime.start.p0(i64 4, ptr %11) #11
  store i32 0, ptr %11, align 4, !tbaa !8
  br label %16

16:                                               ; preds = %54, %4
  %17 = load i32, ptr %11, align 4, !tbaa !8
  %18 = load i32, ptr %8, align 4, !tbaa !8
  %19 = icmp ule i32 %17, %18
  br i1 %19, label %20, label %57

20:                                               ; preds = %16
  call void @llvm.lifetime.start.p0(i64 4, ptr %12) #11
  %21 = load ptr, ptr %5, align 8, !tbaa !18
  %22 = load i32, ptr %11, align 4, !tbaa !8
  %23 = zext i32 %22 to i64
  %24 = getelementptr inbounds nuw i16, ptr %21, i64 %23
  %25 = load i16, ptr %24, align 2, !tbaa !24
  %26 = sext i16 %25 to i32
  %27 = icmp ne i32 %26, -1
  br i1 %27, label %28, label %35

28:                                               ; preds = %20
  %29 = load ptr, ptr %5, align 8, !tbaa !18
  %30 = load i32, ptr %11, align 4, !tbaa !8
  %31 = zext i32 %30 to i64
  %32 = getelementptr inbounds nuw i16, ptr %29, i64 %31
  %33 = load i16, ptr %32, align 2, !tbaa !24
  %34 = sext i16 %33 to i32
  br label %36

35:                                               ; preds = %20
  br label %36

36:                                               ; preds = %35, %28
  %37 = phi i32 [ %34, %28 ], [ 1, %35 ]
  store i32 %37, ptr %12, align 4, !tbaa !8
  call void @llvm.lifetime.start.p0(i64 4, ptr %13) #11
  %38 = load i32, ptr %12, align 4, !tbaa !8
  %39 = load i32, ptr %9, align 4, !tbaa !8
  %40 = shl i32 %38, %39
  store i32 %40, ptr %13, align 4, !tbaa !8
  %41 = load ptr, ptr %7, align 8, !tbaa !3
  %42 = load i32, ptr %11, align 4, !tbaa !8
  %43 = zext i32 %42 to i64
  %44 = getelementptr inbounds nuw i32, ptr %41, i64 %43
  %45 = load i32, ptr %44, align 4, !tbaa !8
  %46 = load i32, ptr %13, align 4, !tbaa !8
  %47 = zext i32 %46 to i64
  %48 = getelementptr inbounds nuw [256 x i32], ptr @_ZN11duckdb_zstdL25kInverseProbabilityLog256E, i64 0, i64 %47
  %49 = load i32, ptr %48, align 4, !tbaa !8
  %50 = mul i32 %45, %49
  %51 = zext i32 %50 to i64
  %52 = load i64, ptr %10, align 8, !tbaa !10
  %53 = add i64 %52, %51
  store i64 %53, ptr %10, align 8, !tbaa !10
  call void @llvm.lifetime.end.p0(i64 4, ptr %13) #11
  call void @llvm.lifetime.end.p0(i64 4, ptr %12) #11
  br label %54

54:                                               ; preds = %36
  %55 = load i32, ptr %11, align 4, !tbaa !8
  %56 = add i32 %55, 1
  store i32 %56, ptr %11, align 4, !tbaa !8
  br label %16, !llvm.loop !26

57:                                               ; preds = %16
  %58 = load i64, ptr %10, align 8, !tbaa !10
  %59 = lshr i64 %58, 8
  call void @llvm.lifetime.end.p0(i64 4, ptr %11) #11
  call void @llvm.lifetime.end.p0(i64 8, ptr %10) #11
  call void @llvm.lifetime.end.p0(i64 4, ptr %9) #11
  ret i64 %59
}